target datalayout = "e-m:e-p270:32:32-p271:32:32-p272:64:64-i64:64-i128:128-f80:128-n8:16:32:64-S128"
target triple = "x86_64-pc-linux-gnu"

; Function Attrs: nounwind uwtable
define internal float @avifToGammaBT1361(float noundef %0) #0 {
  %2 = alloca float, align 4
  %3 = alloca float, align 4
  store float %0, ptr %3, align 4
  %4 = load float, ptr %3, align 4
  %5 = fcmp olt float %4, -2.500000e-01
  br i1 %5, label %6, label %7

6:                                                ; preds = %1
  store float -2.500000e-01, ptr %2, align 4
  br label %29

7:                                                ; preds = %1
  %8 = load float, ptr %3, align 4
  %9 = fcmp olt float %8, 0.000000e+00
  br i1 %9, label %10, label %15

10:                                               ; preds = %7
  %11 = load float, ptr %3, align 4
  %12 = fmul float -4.000000e+00, %11
  %13 = call float @powf(float noundef %12, float noundef 0x3FDCCCCCC0000000) #4
  %14 = call float @llvm.fmuladd.f32(float 0xBFD196B840000000, float %13, float 0x3F996B8440000000)
  store float %14, ptr %2, align 4
  br label %29

15:                                               ; preds = %7
  %16 = load float, ptr %3, align 4
  %17 = fcmp olt float %16, 0x3F927CBD60000000
  br i1 %17, label %18, label %21

18:                                               ; preds = %15
  %19 = load float, ptr %3, align 4
  %20 = fmul float %19, 4.500000e+00
  store float %20, ptr %2, align 4
  br label %29

21:                                               ; preds = %15
  %22 = load float, ptr %3, align 4
  %23 = fcmp olt float %22, 1.000000e+00
  br i1 %23, label %24, label %28

24:                                               ; preds = %21
  %25 = load float, ptr %3, align 4
  %26 = call float @powf(float noundef %25, float noundef 0x3FDCCCCCC0000000) #4
  %27 = call float @llvm.fmuladd.f32(float 0x3FF196B840000000, float %26, float 0xBFB96B8440000000)
  store float %27, ptr %2, align 4
  br label %29

28:                                               ; preds = %21
  store float 1.000000e+00, ptr %2, align 4
  br label %29

29:                                               ; preds = %28, %24, %18, %10, %6
  %30 = load float, ptr %2, align 4
  ret float %30
}