; Function Attrs: mustprogress nofree nounwind willreturn memory(write) uwtable
define internal float @avifToGammaBT1361(float noundef %0) #5 {
  %2 = fcmp olt float %0, -2.500000e-01
  br i1 %2, label %18, label %3

3:                                                ; preds = %1
  %4 = fcmp olt float %0, 0.000000e+00
  br i1 %4, label %5, label %9

5:                                                ; preds = %3
  %6 = fmul float %0, -4.000000e+00
  %7 = tail call float @powf(float noundef %6, float noundef 0x3FDCCCCCC0000000) #9
  %8 = tail call float @llvm.fmuladd.f32(float %7, float 0xBFD196B840000000, float 0x3F996B8440000000)
  br label %18

9:                                                ; preds = %3
  %10 = fcmp olt float %0, 0x3F927CBD60000000
  br i1 %10, label %11, label %13

11:                                               ; preds = %9
  %12 = fmul float %0, 4.500000e+00
  br label %18

13:                                               ; preds = %9
  %14 = fcmp olt float %0, 1.000000e+00
  br i1 %14, label %15, label %18

15:                                               ; preds = %13
  %16 = tail call float @powf(float noundef %0, float noundef 0x3FDCCCCCC0000000) #9
  %17 = tail call float @llvm.fmuladd.f32(float %16, float 0x3FF196B840000000, float 0xBFB96B8440000000)
  br label %18

18:                                               ; preds = %13, %1, %15, %11, %5
  %.0 = phi float [ %8, %5 ], [ %12, %11 ], [ %17, %15 ], [ -2.500000e-01, %1 ], [ 1.000000e+00, %13 ]
  ret float %.0
}